target datalayout = "e-m:e-p270:32:32-p271:32:32-p272:64:64-i64:64-i128:128-f80:128-n8:16:32:64-S128"
target triple = "x86_64-pc-linux-gnu"

%struct._packet_info = type { ptr, ptr, i32, i32, %struct.nstime_t, %struct.nstime_t, %struct.nstime_t, i8, ptr, ptr, ptr, ptr, %struct._address, %struct._address, %struct._address, %struct._address, %struct._address, %struct._address, i32, ptr, i8, [3 x i8], %struct.anon, i32, i32, i32, i32, ptr, i8, ptr, ptr, i16, i16, i32, i32, i16, i32, i32, ptr, ptr, ptr, i8, i8, i16, i16, i16, i32, i16, i16, ptr, ptr, ptr, ptr, ptr, i32, i32 }
%struct.nstime_t = type { i64, i32 }
%struct._address = type { i32, i32, ptr, ptr }
%struct.anon = type { i8, [3 x i8] }
%struct._smpp_data_t = type { i8, i32, ptr }

@hf_smpp_short_message = internal global i32 0, align 4
@proto_smpp = internal global i32 0, align 4
@gsm_sms_handle = internal global ptr null, align 8

; Function Attrs: inlinehint nounwind null_pointer_is_valid sspstrong uwtable
define internal void @set_address(ptr noundef %0, i32 noundef %1, i32 noundef %2, ptr noundef %3) #5 {
  %5 = alloca ptr, align 8
  %6 = alloca i32, align 4
  %7 = alloca i32, align 4
  %8 = alloca ptr, align 8
  store ptr %0, ptr %5, align 8
  store i32 %1, ptr %6, align 4
  store i32 %2, ptr %7, align 4
  store ptr %3, ptr %8, align 8
  %9 = load i32, ptr %7, align 4
  %10 = icmp eq i32 %9, 0
  br i1 %10, label %11, label %14

11:                                               ; preds = %4
  br label %12

12:                                               ; preds = %11
  br label %13

13:                                               ; preds = %12
  br label %19

14:                                               ; preds = %4
  br label %15

15:                                               ; preds = %14
  br label %16

16:                                               ; preds = %15
  br label %17

17:                                               ; preds = %16
  br label %18

18:                                               ; preds = %17
  br label %19

19:                                               ; preds = %18, %13
  %20 = load i32, ptr %6, align 4
  %21 = load ptr, ptr %5, align 8
  %22 = getelementptr inbounds nuw %struct._address, ptr %21, i32 0, i32 0
  store i32 %20, ptr %22, align 8
  %23 = load i32, ptr %7, align 4
  %24 = load ptr, ptr %5, align 8
  %25 = getelementptr inbounds nuw %struct._address, ptr %24, i32 0, i32 1
  store i32 %23, ptr %25, align 4
  %26 = load ptr, ptr %8, align 8
  %27 = load ptr, ptr %5, align 8
  %28 = getelementptr inbounds nuw %struct._address, ptr %27, i32 0, i32 2
  store ptr %26, ptr %28, align 8
  %29 = load ptr, ptr %5, align 8
  %30 = getelementptr inbounds nuw %struct._address, ptr %29, i32 0, i32 3
  store ptr null, ptr %30, align 8
  ret void
}

; Function Attrs: inlinehint null_pointer_is_valid sspstrong uwtable
define internal void @copy_address_shallow(ptr noundef %0, ptr noundef %1) #8 {
  %3 = alloca ptr, align 8
  %4 = alloca ptr, align 8
  store ptr %0, ptr %3, align 8
  store ptr %1, ptr %4, align 8
  %5 = load ptr, ptr %3, align 8
  %6 = load ptr, ptr %4, align 8
  %7 = getelementptr inbounds nuw %struct._address, ptr %6, i32 0, i32 0
  %8 = load i32, ptr %7, align 8
  %9 = load ptr, ptr %4, align 8
  %10 = getelementptr inbounds nuw %struct._address, ptr %9, i32 0, i32 1
  %11 = load i32, ptr %10, align 4
  %12 = load ptr, ptr %4, align 8
  %13 = getelementptr inbounds nuw %struct._address, ptr %12, i32 0, i32 2
  %14 = load ptr, ptr %13, align 8
  call void @set_address(ptr noundef %5, i32 noundef %8, i32 noundef %11, ptr noundef %14)
  ret void
}

; Function Attrs: null_pointer_is_valid sspstrong uwtable
define internal ptr @get_smpp_data(ptr noundef %0) #0 {
  %2 = alloca ptr, align 8
  %3 = alloca ptr, align 8
  store ptr %0, ptr %2, align 8
  call void @llvm.lifetime.start.p0(i64 8, ptr %3) #10
  store ptr null, ptr %3, align 8
  %4 = load ptr, ptr %2, align 8
  %5 = getelementptr inbounds nuw %struct._packet_info, ptr %4, i32 0, i32 51
  %6 = load ptr, ptr %5, align 8
  %7 = load ptr, ptr %2, align 8
  %8 = load i32, ptr @proto_smpp, align 4
  %9 = call ptr @p_get_proto_data(ptr noundef %6, ptr noundef %7, i32 noundef %8, i32 noundef 0)
  store ptr %9, ptr %3, align 8
  %10 = load ptr, ptr %3, align 8
  %11 = icmp ne ptr %10, null
  br i1 %11, label %23, label %12

12:                                               ; preds = %1
  %13 = load ptr, ptr %2, align 8
  %14 = getelementptr inbounds nuw %struct._packet_info, ptr %13, i32 0, i32 51
  %15 = load ptr, ptr %14, align 8
  %16 = call noalias ptr @wmem_alloc0(ptr noundef %15, i64 noundef 16) #12
  store ptr %16, ptr %3, align 8
  %17 = load ptr, ptr %2, align 8
  %18 = getelementptr inbounds nuw %struct._packet_info, ptr %17, i32 0, i32 51
  %19 = load ptr, ptr %18, align 8
  %20 = load ptr, ptr %2, align 8
  %21 = load i32, ptr @proto_smpp, align 4
  %22 = load ptr, ptr %3, align 8
  call void @p_add_proto_data(ptr noundef %19, ptr noundef %20, i32 noundef %21, i32 noundef 0, ptr noundef %22)
  br label %23

23:                                               ; preds = %12, %1
  %24 = load ptr, ptr %3, align 8
  call void @llvm.lifetime.end.p0(i64 8, ptr %3) #10
  ret ptr %24
}

; Function Attrs: null_pointer_is_valid sspstrong uwtable
define internal void @smpp_handle_msg(ptr noundef %0, ptr noundef %1, ptr noundef %2, ptr noundef %3, ptr noundef %4) #0 {
  %6 = alloca ptr, align 8
  %7 = alloca ptr, align 8
  %8 = alloca ptr, align 8
  %9 = alloca ptr, align 8
  %10 = alloca ptr, align 8
  %11 = alloca ptr, align 8
  %12 = alloca %struct._address, align 8
  %13 = alloca %struct._address, align 8
  %14 = alloca i32, align 4
  %15 = alloca i32, align 4
  %16 = alloca i32, align 4
  %17 = alloca i8, align 1
  %18 = alloca i32, align 4
  store ptr %0, ptr %6, align 8
  store ptr %1, ptr %7, align 8
  store ptr %2, ptr %8, align 8
  store ptr %3, ptr %9, align 8
  store ptr %4, ptr %10, align 8
  call void @llvm.lifetime.start.p0(i64 8, ptr %11) #10
  call void @llvm.lifetime.start.p0(i64 24, ptr %12) #10
  call void @llvm.lifetime.start.p0(i64 24, ptr %13) #10
  call void @llvm.lifetime.start.p0(i64 4, ptr %14) #10
  call void @llvm.lifetime.start.p0(i64 4, ptr %15) #10
  store i32 0, ptr %15, align 4
  call void @llvm.lifetime.start.p0(i64 4, ptr %16) #10
  %19 = load ptr, ptr %8, align 8
  %20 = call ptr @get_smpp_data(ptr noundef %19)
  store ptr %20, ptr %11, align 8
  %21 = load ptr, ptr %11, align 8
  %22 = getelementptr inbounds nuw %struct._smpp_data_t, ptr %21, i32 0, i32 1
  %23 = load i32, ptr %22, align 4
  store i32 %23, ptr %14, align 4
  %24 = load ptr, ptr %7, align 8
  %25 = call i32 @tvb_reported_length(ptr noundef %24)
  store i32 %25, ptr %16, align 4
  %26 = load ptr, ptr %11, align 8
  %27 = getelementptr inbounds nuw %struct._smpp_data_t, ptr %26, i32 0, i32 0
  %28 = load i8, ptr %27, align 8, !range !6, !noundef !7
  %29 = trunc i8 %28 to i1
  br i1 %29, label %30, label %35

30:                                               ; preds = %5
  %31 = load ptr, ptr %7, align 8
  %32 = call zeroext i8 @tvb_get_uint8(ptr noundef %31, i32 noundef 0)
  %33 = zext i8 %32 to i32
  %34 = add i32 %33, 1
  store i32 %34, ptr %15, align 4
  br label %35

35:                                               ; preds = %30, %5
  %36 = load ptr, ptr %11, align 8
  %37 = getelementptr inbounds nuw %struct._smpp_data_t, ptr %36, i32 0, i32 0
  %38 = load i8, ptr %37, align 8, !range !6, !noundef !7
  %39 = trunc i8 %38 to i1
  br i1 %39, label %45, label %40

40:                                               ; preds = %35
  %41 = load ptr, ptr %11, align 8
  %42 = getelementptr inbounds nuw %struct._smpp_data_t, ptr %41, i32 0, i32 2
  %43 = load ptr, ptr %42, align 8
  %44 = icmp ne ptr %43, null
  br i1 %44, label %45, label %75

45:                                               ; preds = %40, %35
  %46 = load ptr, ptr %8, align 8
  %47 = getelementptr inbounds nuw %struct._packet_info, ptr %46, i32 0, i32 16
  call void @copy_address_shallow(ptr noundef %12, ptr noundef %47)
  %48 = load ptr, ptr %8, align 8
  %49 = getelementptr inbounds nuw %struct._packet_info, ptr %48, i32 0, i32 17
  call void @copy_address_shallow(ptr noundef %13, ptr noundef %49)
  %50 = load ptr, ptr %8, align 8
  %51 = getelementptr inbounds nuw %struct._packet_info, ptr %50, i32 0, i32 16
  %52 = load ptr, ptr %9, align 8
  %53 = call i64 @strlen(ptr noundef %52) #13
  %54 = trunc i64 %53 to i32
  %55 = add i32 1, %54
  %56 = load ptr, ptr %9, align 8
  call void @set_address(ptr noundef %51, i32 noundef 7, i32 noundef %55, ptr noundef %56)
  %57 = load ptr, ptr %8, align 8
  %58 = getelementptr inbounds nuw %struct._packet_info, ptr %57, i32 0, i32 17
  %59 = load ptr, ptr %10, align 8
  %60 = call i64 @strlen(ptr noundef %59) #13
  %61 = trunc i64 %60 to i32
  %62 = add i32 1, %61
  %63 = load ptr, ptr %10, align 8
  call void @set_address(ptr noundef %58, i32 noundef 7, i32 noundef %62, ptr noundef %63)
  %64 = load ptr, ptr @gsm_sms_handle, align 8
  %65 = load ptr, ptr %7, align 8
  %66 = load ptr, ptr %8, align 8
  %67 = load ptr, ptr %6, align 8
  %68 = call ptr @proto_tree_get_parent_tree(ptr noundef %67)
  %69 = load ptr, ptr %11, align 8
  %70 = call i32 @call_dissector_with_data(ptr noundef %64, ptr noundef %65, ptr noundef %66, ptr noundef %68, ptr noundef %69)
  %71 = load ptr, ptr %8, align 8
  %72 = getelementptr inbounds nuw %struct._packet_info, ptr %71, i32 0, i32 16
  call void @copy_address_shallow(ptr noundef %72, ptr noundef %12)
  %73 = load ptr, ptr %8, align 8
  %74 = getelementptr inbounds nuw %struct._packet_info, ptr %73, i32 0, i32 17
  call void @copy_address_shallow(ptr noundef %74, ptr noundef %13)
  br label %75

75:                                               ; preds = %45, %40
  %76 = load ptr, ptr %11, align 8
  %77 = getelementptr inbounds nuw %struct._smpp_data_t, ptr %76, i32 0, i32 1
  %78 = load i32, ptr %77, align 4
  %79 = icmp ne i32 %78, -1
  br i1 %79, label %80, label %126

80:                                               ; preds = %75
  %81 = load ptr, ptr %11, align 8
  %82 = getelementptr inbounds nuw %struct._smpp_data_t, ptr %81, i32 0, i32 1
  %83 = load i32, ptr %82, align 4
  %84 = icmp eq i32 %83, 44
  br i1 %84, label %85, label %115

85:                                               ; preds = %80
  %86 = load ptr, ptr %11, align 8
  %87 = getelementptr inbounds nuw %struct._smpp_data_t, ptr %86, i32 0, i32 0
  %88 = load i8, ptr %87, align 8, !range !6, !noundef !7
  %89 = trunc i8 %88 to i1
  br i1 %89, label %90, label %115

90:                                               ; preds = %85
  call void @llvm.lifetime.start.p0(i64 1, ptr %17) #10
  %91 = load i32, ptr %15, align 4
  %92 = sub i32 %91, 1
  %93 = mul i32 %92, 8
  %94 = srem i32 %93, 7
  %95 = sub i32 6, %94
  %96 = trunc i32 %95 to i8
  store i8 %96, ptr %17, align 1
  call void @llvm.lifetime.start.p0(i64 4, ptr %18) #10
  %97 = load i32, ptr %16, align 4
  %98 = load i32, ptr %15, align 4
  %99 = sub i32 %97, %98
  %100 = mul i32 %99, 8
  %101 = load i8, ptr %17, align 1
  %102 = zext i8 %101 to i32
  %103 = sub i32 %100, %102
  %104 = sdiv i32 %103, 7
  store i32 %104, ptr %18, align 4
  %105 = load ptr, ptr %6, align 8
  %106 = load i32, ptr @hf_smpp_short_message, align 4
  %107 = load ptr, ptr %7, align 8
  %108 = load i32, ptr %15, align 4
  %109 = mul i32 %108, 8
  %110 = load i8, ptr %17, align 1
  %111 = zext i8 %110 to i32
  %112 = add i32 %109, %111
  %113 = load i32, ptr %18, align 4
  %114 = call ptr @proto_tree_add_ts_23_038_7bits_packed_item(ptr noundef %105, i32 noundef %106, ptr noundef %107, i32 noundef %112, i32 noundef %113)
  call void @llvm.lifetime.end.p0(i64 4, ptr %18) #10
  call void @llvm.lifetime.end.p0(i64 1, ptr %17) #10
  br label %125

115:                                              ; preds = %85, %80
  %116 = load ptr, ptr %6, align 8
  %117 = load i32, ptr @hf_smpp_short_message, align 4
  %118 = load ptr, ptr %7, align 8
  %119 = load i32, ptr %15, align 4
  %120 = load i32, ptr %16, align 4
  %121 = load i32, ptr %15, align 4
  %122 = sub i32 %120, %121
  %123 = load i32, ptr %14, align 4
  %124 = call ptr @proto_tree_add_item(ptr noundef %116, i32 noundef %117, ptr noundef %118, i32 noundef %119, i32 noundef %122, i32 noundef %123)
  br label %125

125:                                              ; preds = %115, %90
  br label %126

126:                                              ; preds = %125, %75
  call void @llvm.lifetime.end.p0(i64 4, ptr %16) #10
  call void @llvm.lifetime.end.p0(i64 4, ptr %15) #10
  call void @llvm.lifetime.end.p0(i64 4, ptr %14) #10
  call void @llvm.lifetime.end.p0(i64 24, ptr %13) #10
  call void @llvm.lifetime.end.p0(i64 24, ptr %12) #10
  call void @llvm.lifetime.end.p0(i64 8, ptr %11) #10
  ret void
}