; Function Attrs: null_pointer_is_valid sspstrong uwtable
define internal fastcc void @smpp_handle_msg(ptr noundef %0, ptr noundef nonnull %1, ptr noundef %2, ptr noundef %3, ptr noundef %4) unnamed_addr #0 {
  %6 = getelementptr inbounds nuw i8, ptr %2, i64 408
  %7 = load ptr, ptr %6, align 8
  %8 = load i32, ptr @proto_smpp, align 4
  %9 = tail call ptr @p_get_proto_data(ptr noundef %7, ptr noundef %2, i32 noundef %8, i32 noundef 0)
  %.not.i = icmp eq ptr %9, null
  br i1 %.not.i, label %10, label %get_smpp_data.exit

10:                                               ; preds = %5
  %11 = load ptr, ptr %6, align 8
  %12 = tail call noalias dereferenceable_or_null(16) ptr @wmem_alloc0(ptr noundef %11, i64 noundef 16) #12
  %13 = load ptr, ptr %6, align 8
  %14 = load i32, ptr @proto_smpp, align 4
  tail call void @p_add_proto_data(ptr noundef %13, ptr noundef %2, i32 noundef %14, i32 noundef 0, ptr noundef %12)
  br label %get_smpp_data.exit

get_smpp_data.exit:                               ; preds = %5, %10
  %.0.i = phi ptr [ %9, %5 ], [ %12, %10 ]
  %15 = getelementptr inbounds nuw i8, ptr %.0.i, i64 4
  %16 = load i32, ptr %15, align 4
  %17 = tail call i32 @tvb_reported_length(ptr noundef nonnull %1)
  %18 = load i8, ptr %.0.i, align 8, !range !6, !noundef !7
  %19 = trunc nuw i8 %18 to i1
  br i1 %19, label %20, label %.thread

20:                                               ; preds = %get_smpp_data.exit
  %21 = tail call zeroext i8 @tvb_get_uint8(ptr noundef nonnull %1, i32 noundef 0)
  %22 = zext i8 %21 to i32
  %23 = add nuw nsw i32 %22, 1
  %.pre = load i8, ptr %.0.i, align 8, !range !6
  %24 = trunc nuw i8 %.pre to i1
  br i1 %24, label %27, label %.thread

.thread:                                          ; preds = %get_smpp_data.exit, %20
  %.047 = phi i32 [ %23, %20 ], [ 0, %get_smpp_data.exit ]
  %25 = getelementptr inbounds nuw i8, ptr %.0.i, i64 8
  %26 = load ptr, ptr %25, align 8
  %.not = icmp eq ptr %26, null
  br i1 %.not, label %51, label %27

27:                                               ; preds = %.thread, %20
  %.045 = phi i32 [ %.047, %.thread ], [ %23, %20 ]
  %28 = getelementptr inbounds nuw i8, ptr %2, i64 208
  %29 = load i32, ptr %28, align 8
  %30 = getelementptr inbounds nuw i8, ptr %2, i64 212
  %31 = load i32, ptr %30, align 4
  %32 = getelementptr inbounds nuw i8, ptr %2, i64 216
  %33 = load ptr, ptr %32, align 8
  %34 = getelementptr inbounds nuw i8, ptr %2, i64 232
  %35 = load i32, ptr %34, align 8
  %36 = getelementptr inbounds nuw i8, ptr %2, i64 236
  %37 = load i32, ptr %36, align 4
  %38 = getelementptr inbounds nuw i8, ptr %2, i64 240
  %39 = load ptr, ptr %38, align 8
  %40 = tail call i64 @strlen(ptr noundef %3) #13
  %41 = trunc i64 %40 to i32
  %42 = add i32 %41, 1
  store i32 7, ptr %28, align 8
  store i32 %42, ptr %30, align 4
  store ptr %3, ptr %32, align 8
  %43 = getelementptr inbounds nuw i8, ptr %2, i64 224
  store ptr null, ptr %43, align 8
  %44 = tail call i64 @strlen(ptr noundef %4) #13
  %45 = trunc i64 %44 to i32
  %46 = add i32 %45, 1
  store i32 7, ptr %34, align 8
  store i32 %46, ptr %36, align 4
  store ptr %4, ptr %38, align 8
  %47 = getelementptr inbounds nuw i8, ptr %2, i64 248
  store ptr null, ptr %47, align 8
  %48 = load ptr, ptr @gsm_sms_handle, align 8
  %49 = tail call ptr @proto_tree_get_parent_tree(ptr noundef %0)
  %50 = tail call i32 @call_dissector_with_data(ptr noundef %48, ptr noundef nonnull %1, ptr noundef %2, ptr noundef %49, ptr noundef %.0.i)
  store i32 %29, ptr %28, align 8
  store i32 %31, ptr %30, align 4
  store ptr %33, ptr %32, align 8
  store ptr null, ptr %43, align 8
  store i32 %35, ptr %34, align 8
  store i32 %37, ptr %36, align 4
  store ptr %39, ptr %38, align 8
  store ptr null, ptr %47, align 8
  br label %51

51:                                               ; preds = %27, %.thread
  %.046 = phi i32 [ %.045, %27 ], [ %.047, %.thread ]
  %52 = load i32, ptr %15, align 4
  switch i32 %52, label %68 [
    i32 -1, label %72
    i32 44, label %53
  ]

53:                                               ; preds = %51
  %54 = load i8, ptr %.0.i, align 8, !range !6, !noundef !7
  %55 = trunc nuw i8 %54 to i1
  br i1 %55, label %56, label %68

56:                                               ; preds = %53
  %57 = shl nuw nsw i32 %.046, 3
  %58 = trunc nuw nsw i32 %57 to i16
  %.lhs.trunc = add nsw i16 %58, -8
  %59 = srem i16 %.lhs.trunc, 7
  %narrow = sub nsw i16 6, %59
  %60 = zext nneg i16 %narrow to i32
  %61 = sub i32 %17, %.046
  %62 = shl i32 %61, 3
  %63 = sub i32 %62, %60
  %64 = sdiv i32 %63, 7
  %65 = load i32, ptr @hf_smpp_short_message, align 4
  %66 = add nuw nsw i32 %57, %60
  %67 = tail call ptr @proto_tree_add_ts_23_038_7bits_packed_item(ptr noundef %0, i32 noundef %65, ptr noundef nonnull %1, i32 noundef %66, i32 noundef %64)
  br label %72

68:                                               ; preds = %51, %53
  %69 = load i32, ptr @hf_smpp_short_message, align 4
  %70 = sub i32 %17, %.046
  %71 = tail call ptr @proto_tree_add_item(ptr noundef %0, i32 noundef %69, ptr noundef nonnull %1, i32 noundef %.046, i32 noundef %70, i32 noundef %16)
  br label %72

72:                                               ; preds = %51, %56, %68
  ret void
}